target datalayout = "e-m:e-p270:32:32-p271:32:32-p272:64:64-i64:64-i128:128-f80:128-n8:16:32:64-S128"
target triple = "x86_64-pc-linux-gnu"

%struct.ossl_param_st = type { ptr, i32, ptr, i64, i64 }

@.str.6 = private unnamed_addr constant [35 x i8] c"../openssl/test/param_build_test.c\00", align 1
@.str.20 = private unnamed_addr constant [4 x i8] c"bld\00", align 1
@.str.48 = private unnamed_addr constant [2 x i8] c"i\00", align 1
@.str.146 = private unnamed_addr constant [50 x i8] c"OSSL_PARAM_BLD_push_int(bld, names[i], 3 * i + 1)\00", align 1
@.str.147 = private unnamed_addr constant [38 x i8] c"params = OSSL_PARAM_BLD_to_param(bld)\00", align 1
@.str.148 = private unnamed_addr constant [2 x i8] c"n\00", align 1
@.str.149 = private unnamed_addr constant [37 x i8] c"OSSL_PARAM_BLD_push_int(bld, \22g\22, 2)\00", align 1
@.str.150 = private unnamed_addr constant [2 x i8] c"g\00", align 1
@.str.151 = private unnamed_addr constant [2 x i8] c"1\00", align 1

; Function Attrs: nounwind uwtable
define internal i32 @builder_limit_test() #0 {
  %1 = alloca i32, align 4
  %2 = alloca [100 x [3 x i8]], align 16
  %3 = alloca ptr, align 8
  %4 = alloca ptr, align 8
  %5 = alloca i32, align 4
  %6 = alloca i32, align 4
  call void @llvm.lifetime.start.p0(i64 4, ptr %1) #3
  store i32 100, ptr %1, align 4, !tbaa !4
  call void @llvm.lifetime.start.p0(i64 300, ptr %2) #3
  call void @llvm.lifetime.start.p0(i64 8, ptr %3) #3
  %7 = call ptr @OSSL_PARAM_BLD_new()
  store ptr %7, ptr %3, align 8, !tbaa !8
  call void @llvm.lifetime.start.p0(i64 8, ptr %4) #3
  store ptr null, ptr %4, align 8, !tbaa !11
  call void @llvm.lifetime.start.p0(i64 4, ptr %5) #3
  call void @llvm.lifetime.start.p0(i64 4, ptr %6) #3
  store i32 0, ptr %6, align 4, !tbaa !4
  %8 = load ptr, ptr %3, align 8, !tbaa !8
  %9 = call i32 @test_ptr(ptr noundef @.str.6, i32 noundef 404, ptr noundef @.str.20, ptr noundef %8)
  %10 = icmp ne i32 %9, 0
  br i1 %10, label %12, label %11

11:                                               ; preds = %0
  br label %114

12:                                               ; preds = %0
  store i32 0, ptr %5, align 4, !tbaa !4
  br label %13

13:                                               ; preds = %54, %12
  %14 = load i32, ptr %5, align 4, !tbaa !4
  %15 = icmp slt i32 %14, 100
  br i1 %15, label %16, label %57

16:                                               ; preds = %13
  %17 = load i32, ptr %5, align 4, !tbaa !4
  %18 = sdiv i32 %17, 26
  %19 = add nsw i32 65, %18
  %20 = sub nsw i32 %19, 1
  %21 = trunc i32 %20 to i8
  %22 = load i32, ptr %5, align 4, !tbaa !4
  %23 = sext i32 %22 to i64
  %24 = getelementptr inbounds [100 x [3 x i8]], ptr %2, i64 0, i64 %23
  %25 = getelementptr inbounds [3 x i8], ptr %24, i64 0, i64 0
  store i8 %21, ptr %25, align 1, !tbaa !32
  %26 = load i32, ptr %5, align 4, !tbaa !4
  %27 = srem i32 %26, 26
  %28 = add nsw i32 97, %27
  %29 = sub nsw i32 %28, 1
  %30 = trunc i32 %29 to i8
  %31 = load i32, ptr %5, align 4, !tbaa !4
  %32 = sext i32 %31 to i64
  %33 = getelementptr inbounds [100 x [3 x i8]], ptr %2, i64 0, i64 %32
  %34 = getelementptr inbounds [3 x i8], ptr %33, i64 0, i64 1
  store i8 %30, ptr %34, align 1, !tbaa !32
  %35 = load i32, ptr %5, align 4, !tbaa !4
  %36 = sext i32 %35 to i64
  %37 = getelementptr inbounds [100 x [3 x i8]], ptr %2, i64 0, i64 %36
  %38 = getelementptr inbounds [3 x i8], ptr %37, i64 0, i64 2
  store i8 0, ptr %38, align 1, !tbaa !32
  %39 = load ptr, ptr %3, align 8, !tbaa !8
  %40 = load i32, ptr %5, align 4, !tbaa !4
  %41 = sext i32 %40 to i64
  %42 = getelementptr inbounds [100 x [3 x i8]], ptr %2, i64 0, i64 %41
  %43 = getelementptr inbounds [3 x i8], ptr %42, i64 0, i64 0
  %44 = load i32, ptr %5, align 4, !tbaa !4
  %45 = mul nsw i32 3, %44
  %46 = add nsw i32 %45, 1
  %47 = call i32 @OSSL_PARAM_BLD_push_int(ptr noundef %39, ptr noundef %43, i32 noundef %46)
  %48 = icmp ne i32 %47, 0
  %49 = zext i1 %48 to i32
  %50 = call i32 @test_true(ptr noundef @.str.6, i32 noundef 411, ptr noundef @.str.146, i32 noundef %49)
  %51 = icmp ne i32 %50, 0
  br i1 %51, label %53, label %52

52:                                               ; preds = %16
  br label %114

53:                                               ; preds = %16
  br label %54

54:                                               ; preds = %53
  %55 = load i32, ptr %5, align 4, !tbaa !4
  %56 = add nsw i32 %55, 1
  store i32 %56, ptr %5, align 4, !tbaa !4
  br label %13, !llvm.loop !33

57:                                               ; preds = %13
  %58 = load ptr, ptr %3, align 8, !tbaa !8
  %59 = call ptr @OSSL_PARAM_BLD_to_param(ptr noundef %58)
  store ptr %59, ptr %4, align 8, !tbaa !11
  %60 = call i32 @test_ptr(ptr noundef @.str.6, i32 noundef 414, ptr noundef @.str.147, ptr noundef %59)
  %61 = icmp ne i32 %60, 0
  br i1 %61, label %63, label %62

62:                                               ; preds = %57
  br label %114

63:                                               ; preds = %57
  store i32 0, ptr %5, align 4, !tbaa !4
  br label %64

64:                                               ; preds = %73, %63
  %65 = load ptr, ptr %4, align 8, !tbaa !11
  %66 = load i32, ptr %5, align 4, !tbaa !4
  %67 = sext i32 %66 to i64
  %68 = getelementptr inbounds %struct.ossl_param_st, ptr %65, i64 %67
  %69 = getelementptr inbounds nuw %struct.ossl_param_st, ptr %68, i32 0, i32 0
  %70 = load ptr, ptr %69, align 8, !tbaa !15
  %71 = icmp ne ptr %70, null
  br i1 %71, label %72, label %76

72:                                               ; preds = %64
  br label %73

73:                                               ; preds = %72
  %74 = load i32, ptr %5, align 4, !tbaa !4
  %75 = add nsw i32 %74, 1
  store i32 %75, ptr %5, align 4, !tbaa !4
  br label %64, !llvm.loop !34

76:                                               ; preds = %64
  %77 = load i32, ptr %5, align 4, !tbaa !4
  %78 = call i32 @test_int_eq(ptr noundef @.str.6, i32 noundef 418, ptr noundef @.str.48, ptr noundef @.str.148, i32 noundef %77, i32 noundef 100)
  %79 = icmp ne i32 %78, 0
  br i1 %79, label %81, label %80

80:                                               ; preds = %76
  br label %114

81:                                               ; preds = %76
  %82 = load ptr, ptr %4, align 8, !tbaa !11
  call void @OSSL_PARAM_free(ptr noundef %82)
  store ptr null, ptr %4, align 8, !tbaa !11
  %83 = load ptr, ptr %3, align 8, !tbaa !8
  %84 = call i32 @OSSL_PARAM_BLD_push_int(ptr noundef %83, ptr noundef @.str.150, i32 noundef 2)
  %85 = icmp ne i32 %84, 0
  %86 = zext i1 %85 to i32
  %87 = call i32 @test_true(ptr noundef @.str.6, i32 noundef 425, ptr noundef @.str.149, i32 noundef %86)
  %88 = icmp ne i32 %87, 0
  br i1 %88, label %89, label %94

89:                                               ; preds = %81
  %90 = load ptr, ptr %3, align 8, !tbaa !8
  %91 = call ptr @OSSL_PARAM_BLD_to_param(ptr noundef %90)
  store ptr %91, ptr %4, align 8, !tbaa !11
  %92 = call i32 @test_ptr(ptr noundef @.str.6, i32 noundef 426, ptr noundef @.str.147, ptr noundef %91)
  %93 = icmp ne i32 %92, 0
  br i1 %93, label %95, label %94

94:                                               ; preds = %89, %81
  br label %114

95:                                               ; preds = %89
  store i32 0, ptr %5, align 4, !tbaa !4
  br label %96

96:                                               ; preds = %105, %95
  %97 = load ptr, ptr %4, align 8, !tbaa !11
  %98 = load i32, ptr %5, align 4, !tbaa !4
  %99 = sext i32 %98 to i64
  %100 = getelementptr inbounds %struct.ossl_param_st, ptr %97, i64 %99
  %101 = getelementptr inbounds nuw %struct.ossl_param_st, ptr %100, i32 0, i32 0
  %102 = load ptr, ptr %101, align 8, !tbaa !15
  %103 = icmp ne ptr %102, null
  br i1 %103, label %104, label %108

104:                                              ; preds = %96
  br label %105

105:                                              ; preds = %104
  %106 = load i32, ptr %5, align 4, !tbaa !4
  %107 = add nsw i32 %106, 1
  store i32 %107, ptr %5, align 4, !tbaa !4
  br label %96, !llvm.loop !35

108:                                              ; preds = %96
  %109 = load i32, ptr %5, align 4, !tbaa !4
  %110 = call i32 @test_int_eq(ptr noundef @.str.6, i32 noundef 430, ptr noundef @.str.48, ptr noundef @.str.151, i32 noundef %109, i32 noundef 1)
  %111 = icmp ne i32 %110, 0
  br i1 %111, label %113, label %112

112:                                              ; preds = %108
  br label %114

113:                                              ; preds = %108
  store i32 1, ptr %6, align 4, !tbaa !4
  br label %114

114:                                              ; preds = %113, %112, %94, %80, %62, %52, %11
  %115 = load ptr, ptr %4, align 8, !tbaa !11
  call void @OSSL_PARAM_free(ptr noundef %115)
  %116 = load ptr, ptr %3, align 8, !tbaa !8
  call void @OSSL_PARAM_BLD_free(ptr noundef %116)
  %117 = load i32, ptr %6, align 4, !tbaa !4
  call void @llvm.lifetime.end.p0(i64 4, ptr %6) #3
  call void @llvm.lifetime.end.p0(i64 4, ptr %5) #3
  call void @llvm.lifetime.end.p0(i64 8, ptr %4) #3
  call void @llvm.lifetime.end.p0(i64 8, ptr %3) #3
  call void @llvm.lifetime.end.p0(i64 300, ptr %2) #3
  call void @llvm.lifetime.end.p0(i64 4, ptr %1) #3
  ret i32 %117
}