; Function Attrs: nounwind uwtable
define internal range(i32 0, 2) i32 @builder_limit_test() #0 {
  %1 = alloca [100 x [3 x i8]], align 16
  call void @llvm.lifetime.start.p0(i64 300, ptr nonnull %1) #3
  %2 = tail call ptr @OSSL_PARAM_BLD_new() #3
  %3 = tail call i32 @test_ptr(ptr noundef nonnull @.str.6, i32 noundef 404, ptr noundef nonnull @.str.20, ptr noundef %2) #3
  %.not = icmp eq i32 %3, 0
  br i1 %.not, label %.loopexit, label %.preheader38

4:                                                ; preds = %.preheader38
  %indvars.iv.next = add nuw nsw i64 %indvars.iv, 1
  %exitcond.not = icmp eq i64 %indvars.iv.next, 100
  br i1 %exitcond.not, label %19, label %.preheader38, !llvm.loop !26

.preheader38:                                     ; preds = %0, %4
  %indvars.iv = phi i64 [ %indvars.iv.next, %4 ], [ 0, %0 ]
  %.lhs.trunc = trunc i64 %indvars.iv to i8
  %5 = udiv i8 %.lhs.trunc, 26
  %6 = or disjoint i8 %5, 64
  %7 = getelementptr inbounds nuw [100 x [3 x i8]], ptr %1, i64 0, i64 %indvars.iv
  store i8 %6, ptr %7, align 1, !tbaa !27
  %8 = urem i8 %.lhs.trunc, 26
  %9 = or disjoint i8 %8, 96
  %10 = getelementptr inbounds nuw i8, ptr %7, i64 1
  store i8 %9, ptr %10, align 1, !tbaa !27
  %11 = getelementptr inbounds nuw i8, ptr %7, i64 2
  store i8 0, ptr %11, align 1, !tbaa !27
  %12 = trunc i64 %indvars.iv to i32
  %13 = mul i32 %12, 3
  %14 = add i32 %13, 1
  %15 = call i32 @OSSL_PARAM_BLD_push_int(ptr noundef %2, ptr noundef nonnull %7, i32 noundef %14) #3
  %16 = icmp ne i32 %15, 0
  %17 = zext i1 %16 to i32
  %18 = call i32 @test_true(ptr noundef nonnull @.str.6, i32 noundef 411, ptr noundef nonnull @.str.146, i32 noundef %17) #3
  %.not34 = icmp eq i32 %18, 0
  br i1 %.not34, label %.loopexit, label %4

19:                                               ; preds = %4
  %20 = call ptr @OSSL_PARAM_BLD_to_param(ptr noundef %2) #3
  %21 = call i32 @test_ptr(ptr noundef nonnull @.str.6, i32 noundef 414, ptr noundef nonnull @.str.147, ptr noundef %20) #3
  %.not27 = icmp eq i32 %21, 0
  br i1 %.not27, label %.loopexit, label %.preheader37

.preheader37:                                     ; preds = %19, %.preheader37
  %indvars.iv41 = phi i64 [ %indvars.iv.next42, %.preheader37 ], [ 0, %19 ]
  %22 = getelementptr inbounds nuw %struct.ossl_param_st, ptr %20, i64 %indvars.iv41
  %23 = load ptr, ptr %22, align 8, !tbaa !9
  %.not28 = icmp eq ptr %23, null
  %indvars.iv.next42 = add nuw nsw i64 %indvars.iv41, 1
  br i1 %.not28, label %24, label %.preheader37, !llvm.loop !28

24:                                               ; preds = %.preheader37
  %25 = trunc nuw nsw i64 %indvars.iv41 to i32
  %26 = call i32 @test_int_eq(ptr noundef nonnull @.str.6, i32 noundef 418, ptr noundef nonnull @.str.48, ptr noundef nonnull @.str.148, i32 noundef %25, i32 noundef 100) #3
  %.not29 = icmp eq i32 %26, 0
  br i1 %.not29, label %.loopexit, label %27

27:                                               ; preds = %24
  call void @OSSL_PARAM_free(ptr noundef nonnull %20) #3
  %28 = call i32 @OSSL_PARAM_BLD_push_int(ptr noundef %2, ptr noundef nonnull @.str.150, i32 noundef 2) #3
  %29 = icmp ne i32 %28, 0
  %30 = zext i1 %29 to i32
  %31 = call i32 @test_true(ptr noundef nonnull @.str.6, i32 noundef 425, ptr noundef nonnull @.str.149, i32 noundef %30) #3
  %.not30 = icmp eq i32 %31, 0
  br i1 %.not30, label %.loopexit, label %32

32:                                               ; preds = %27
  %33 = call ptr @OSSL_PARAM_BLD_to_param(ptr noundef %2) #3
  %34 = call i32 @test_ptr(ptr noundef nonnull @.str.6, i32 noundef 426, ptr noundef nonnull @.str.147, ptr noundef %33) #3
  %.not31 = icmp eq i32 %34, 0
  br i1 %.not31, label %.loopexit, label %.preheader

.preheader:                                       ; preds = %32, %.preheader
  %indvars.iv44 = phi i64 [ %indvars.iv.next45, %.preheader ], [ 0, %32 ]
  %35 = getelementptr inbounds nuw %struct.ossl_param_st, ptr %33, i64 %indvars.iv44
  %36 = load ptr, ptr %35, align 8, !tbaa !9
  %.not32 = icmp eq ptr %36, null
  %indvars.iv.next45 = add nuw nsw i64 %indvars.iv44, 1
  br i1 %.not32, label %37, label %.preheader, !llvm.loop !29

37:                                               ; preds = %.preheader
  %38 = trunc nuw nsw i64 %indvars.iv44 to i32
  %39 = call i32 @test_int_eq(ptr noundef nonnull @.str.6, i32 noundef 430, ptr noundef nonnull @.str.48, ptr noundef nonnull @.str.151, i32 noundef %38, i32 noundef 1) #3
  %.not33 = icmp ne i32 %39, 0
  %spec.select = zext i1 %.not33 to i32
  br label %.loopexit

.loopexit:                                        ; preds = %.preheader38, %37, %27, %32, %24, %19, %0
  %.026 = phi ptr [ %33, %32 ], [ null, %27 ], [ %20, %24 ], [ %20, %19 ], [ null, %0 ], [ %33, %37 ], [ null, %.preheader38 ]
  %.0 = phi i32 [ 0, %32 ], [ 0, %27 ], [ 0, %24 ], [ 0, %19 ], [ 0, %0 ], [ %spec.select, %37 ], [ 0, %.preheader38 ]
  call void @OSSL_PARAM_free(ptr noundef %.026) #3
  call void @OSSL_PARAM_BLD_free(ptr noundef %2) #3
  call void @llvm.lifetime.end.p0(i64 300, ptr nonnull %1) #3
  ret i32 %.0
}